target datalayout = "e-m:e-p270:32:32-p271:32:32-p272:64:64-i64:64-i128:128-f80:128-n8:16:32:64-S128"
target triple = "x86_64-pc-linux-gnu"

%"struct.std::array.80" = type { [16384 x float] }
%"class.std::__cxx11::basic_string" = type { %"struct.std::__cxx11::basic_string<char>::_Alloc_hider", i64, %union.anon }
%"struct.std::__cxx11::basic_string<char>::_Alloc_hider" = type { ptr }
%union.anon = type { i64, [8 x i8] }
%"class.gmx::ColvarProxyGromacs" = type { %class.colvarproxy, %struct.t_atoms, i32, %struct.t_pbc, ptr, i8, [7 x i8], %"class.gmx::ThreeFry2x64Fast", %"class.gmx::TabulatedNormalDistribution" }
%class.colvarproxy = type { %class.colvarproxy_system, %class.colvarproxy_atoms.base, %class.colvarproxy_atom_groups, %class.colvarproxy_volmaps, %class.colvarproxy_smp, %class.colvarproxy_replicas, %class.colvarproxy_script.base, %class.colvarproxy_tcl, %class.colvarproxy_io, ptr, i8, %"class.std::__cxx11::basic_string", i8, i8, i8, i32, i64, %"class.std::__cxx11::basic_string", ptr }
%class.colvarproxy_system = type { ptr, %"class.std::__cxx11::basic_string", double, double, i8, double, double, double, double, double, i8, i32, %"class.colvarmodule::rvector", %"class.colvarmodule::rvector", %"class.colvarmodule::rvector", %"class.colvarmodule::rvector", %"class.colvarmodule::rvector", %"class.colvarmodule::rvector" }
%"class.colvarmodule::rvector" = type { double, double, double }
%class.colvarproxy_atoms.base = type <{ ptr, %"class.std::vector", %"class.std::vector.3", %"class.std::vector.8", %"class.std::vector.8", %"class.std::vector.13", %"class.std::vector.13", %"class.std::vector.13", double, double, i32, i8, i8, i8 }>
%"class.std::vector" = type { %"struct.std::_Vector_base" }
%"struct.std::_Vector_base" = type { %"struct.std::_Vector_base<int, std::allocator<int>>::_Vector_impl" }
%"struct.std::_Vector_base<int, std::allocator<int>>::_Vector_impl" = type { %"struct.std::_Vector_base<int, std::allocator<int>>::_Vector_impl_data" }
%"struct.std::_Vector_base<int, std::allocator<int>>::_Vector_impl_data" = type { ptr, ptr, ptr }
%"class.std::vector.3" = type { %"struct.std::_Vector_base.4" }
%"struct.std::_Vector_base.4" = type { %"struct.std::_Vector_base<unsigned long, std::allocator<unsigned long>>::_Vector_impl" }
%"struct.std::_Vector_base<unsigned long, std::allocator<unsigned long>>::_Vector_impl" = type { %"struct.std::_Vector_base<unsigned long, std::allocator<unsigned long>>::_Vector_impl_data" }
%"struct.std::_Vector_base<unsigned long, std::allocator<unsigned long>>::_Vector_impl_data" = type { ptr, ptr, ptr }
%"class.std::vector.8" = type { %"struct.std::_Vector_base.9" }
%"struct.std::_Vector_base.9" = type { %"struct.std::_Vector_base<double, std::allocator<double>>::_Vector_impl" }
%"struct.std::_Vector_base<double, std::allocator<double>>::_Vector_impl" = type { %"struct.std::_Vector_base<double, std::allocator<double>>::_Vector_impl_data" }
%"struct.std::_Vector_base<double, std::allocator<double>>::_Vector_impl_data" = type { ptr, ptr, ptr }
%"class.std::vector.13" = type { %"struct.std::_Vector_base.14" }
%"struct.std::_Vector_base.14" = type { %"struct.std::_Vector_base<colvarmodule::rvector, std::allocator<colvarmodule::rvector>>::_Vector_impl" }
%"struct.std::_Vector_base<colvarmodule::rvector, std::allocator<colvarmodule::rvector>>::_Vector_impl" = type { %"struct.std::_Vector_base<colvarmodule::rvector, std::allocator<colvarmodule::rvector>>::_Vector_impl_data" }
%"struct.std::_Vector_base<colvarmodule::rvector, std::allocator<colvarmodule::rvector>>::_Vector_impl_data" = type { ptr, ptr, ptr }
%class.colvarproxy_atom_groups = type { ptr, %"class.std::vector", %"class.std::vector.3", %"class.std::vector.8", %"class.std::vector.8", %"class.std::vector.13", %"class.std::vector.13", %"class.std::vector.13", double, double }
%class.colvarproxy_volmaps = type { ptr, %"class.std::vector", %"class.std::vector.3", %"class.std::vector.8", %"class.std::vector.8", double, double }
%class.colvarproxy_smp = type { ptr, i8, ptr }
%class.colvarproxy_replicas = type { ptr }
%class.colvarproxy_script.base = type <{ ptr, ptr, i8 }>
%class.colvarproxy_tcl = type { ptr, ptr }
%class.colvarproxy_io = type { ptr, %"class.std::__cxx11::basic_string", %"class.std::__cxx11::basic_string", %"class.std::__cxx11::basic_string", i32, %"class.std::map", ptr, %"class.std::map.21", ptr }
%"class.std::map" = type { %"class.std::_Rb_tree" }
%"class.std::_Rb_tree" = type { %"struct.std::_Rb_tree<std::__cxx11::basic_string<char>, std::pair<const std::__cxx11::basic_string<char>, std::basic_istream<char> *>, std::_Select1st<std::pair<const std::__cxx11::basic_string<char>, std::basic_istream<char> *>>, std::less<std::__cxx11::basic_string<char>>>::_Rb_tree_impl" }
%"struct.std::_Rb_tree<std::__cxx11::basic_string<char>, std::pair<const std::__cxx11::basic_string<char>, std::basic_istream<char> *>, std::_Select1st<std::pair<const std::__cxx11::basic_string<char>, std::basic_istream<char> *>>, std::less<std::__cxx11::basic_string<char>>>::_Rb_tree_impl" = type { %"struct.std::_Rb_tree_key_compare", %"struct.std::_Rb_tree_header" }
%"struct.std::_Rb_tree_key_compare" = type { %"struct.std::less" }
%"struct.std::less" = type { i8 }
%"struct.std::_Rb_tree_header" = type { %"struct.std::_Rb_tree_node_base", i64 }
%"struct.std::_Rb_tree_node_base" = type { i32, ptr, ptr, ptr }
%"class.std::map.21" = type { %"class.std::_Rb_tree.22" }
%"class.std::_Rb_tree.22" = type { %"struct.std::_Rb_tree<std::__cxx11::basic_string<char>, std::pair<const std::__cxx11::basic_string<char>, std::basic_ostream<char> *>, std::_Select1st<std::pair<const std::__cxx11::basic_string<char>, std::basic_ostream<char> *>>, std::less<std::__cxx11::basic_string<char>>>::_Rb_tree_impl" }
%"struct.std::_Rb_tree<std::__cxx11::basic_string<char>, std::pair<const std::__cxx11::basic_string<char>, std::basic_ostream<char> *>, std::_Select1st<std::pair<const std::__cxx11::basic_string<char>, std::basic_ostream<char> *>>, std::less<std::__cxx11::basic_string<char>>>::_Rb_tree_impl" = type { %"struct.std::_Rb_tree_key_compare", %"struct.std::_Rb_tree_header" }
%struct.t_atoms = type { i32, ptr, ptr, ptr, ptr, i32, ptr, ptr, i8, i8, i8, i8, i8 }
%struct.t_pbc = type { i32, i32, i32, i32, [3 x [3 x float]], [3 x float], [3 x float], [3 x float], float, i32, [12 x [3 x i32]], [12 x [3 x float]] }
%"class.gmx::ThreeFry2x64Fast" = type { %"class.gmx::ThreeFry2x64General.base", [4 x i8] }
%"class.gmx::ThreeFry2x64General.base" = type <{ %"struct.std::array", %"struct.std::array", %"struct.std::array", i32 }>
%"struct.std::array" = type { [2 x i64] }
%"class.gmx::TabulatedNormalDistribution" = type <{ %"class.gmx::TabulatedNormalDistribution<>::param_type", i64, i32, [4 x i8] }>
%"class.gmx::TabulatedNormalDistribution<>::param_type" = type { float, float }

@_ZN3gmx27TabulatedNormalDistributionIfLj14EE8c_table_E = external global %"struct.std::array.80", align 4

; Function Attrs: mustprogress nounwind uwtable
define linkonce_odr noundef nonnull align 4 dereferenceable(4) ptr @_ZNSt14__array_traitsIfLm16384EE6_S_refERA16384_Kfm(ptr noundef nonnull align 4 dereferenceable(65536) %0, i64 noundef %1) #0 comdat align 2 {
  %3 = alloca ptr, align 8
  %4 = alloca i64, align 8
  store ptr %0, ptr %3, align 8
  store i64 %1, ptr %4, align 8
  %5 = load ptr, ptr %3, align 8
  %6 = load i64, ptr %4, align 8
  %7 = getelementptr inbounds [16384 x float], ptr %5, i64 0, i64 %6
  ret ptr %7
}

; Function Attrs: mustprogress nounwind uwtable
define linkonce_odr noundef float @_ZNK3gmx27TabulatedNormalDistributionIfLj14EE10param_type6stddevEv(ptr noundef nonnull align 4 dereferenceable(8) %0) #0 comdat align 2 {
  %2 = alloca ptr, align 8
  store ptr %0, ptr %2, align 8
  %3 = load ptr, ptr %2, align 8
  %4 = getelementptr inbounds %"class.gmx::TabulatedNormalDistribution<>::param_type", ptr %3, i32 0, i32 1
  %5 = load float, ptr %4, align 4
  ret float %5
}

; Function Attrs: mustprogress nounwind uwtable
define linkonce_odr noundef float @_ZNK3gmx27TabulatedNormalDistributionIfLj14EE10param_type4meanEv(ptr noundef nonnull align 4 dereferenceable(8) %0) #0 comdat align 2 {
  %2 = alloca ptr, align 8
  store ptr %0, ptr %2, align 8
  %3 = load ptr, ptr %2, align 8
  %4 = getelementptr inbounds %"class.gmx::TabulatedNormalDistribution<>::param_type", ptr %3, i32 0, i32 0
  %5 = load float, ptr %4, align 4
  ret float %5
}

; Function Attrs: mustprogress nounwind uwtable
define linkonce_odr noundef nonnull align 4 dereferenceable(4) ptr @_ZNKSt5arrayIfLm16384EEixEm(ptr noundef nonnull align 4 dereferenceable(65536) %0, i64 noundef %1) #0 comdat align 2 {
  %3 = alloca ptr, align 8
  %4 = alloca i64, align 8
  store ptr %0, ptr %3, align 8
  store i64 %1, ptr %4, align 8
  %5 = load ptr, ptr %3, align 8
  %6 = getelementptr inbounds %"struct.std::array.80", ptr %5, i32 0, i32 0
  %7 = load i64, ptr %4, align 8
  %8 = call noundef nonnull align 4 dereferenceable(4) ptr @_ZNSt14__array_traitsIfLm16384EE6_S_refERA16384_Kfm(ptr noundef nonnull align 4 dereferenceable(65536) %6, i64 noundef %7) #14
  ret ptr %8
}

; Function Attrs: mustprogress uwtable
define linkonce_odr noundef float @_ZN3gmx27TabulatedNormalDistributionIfLj14EEclINS_16ThreeFry2x64FastILj64EEEEEfRT_RKNS1_10param_typeE(ptr noundef nonnull align 8 dereferenceable(20) %0, ptr noundef nonnull align 8 dereferenceable(52) %1, ptr noundef nonnull align 4 dereferenceable(8) %2) #1 comdat align 2 {
  %4 = alloca ptr, align 8
  %5 = alloca ptr, align 8
  %6 = alloca ptr, align 8
  %7 = alloca float, align 4
  store ptr %0, ptr %4, align 8
  store ptr %1, ptr %5, align 8
  store ptr %2, ptr %6, align 8
  %8 = load ptr, ptr %4, align 8
  %9 = getelementptr inbounds %"class.gmx::TabulatedNormalDistribution", ptr %8, i32 0, i32 2
  %10 = load i32, ptr %9, align 8
  %11 = icmp ult i32 %10, 14
  br i1 %11, label %12, label %17

12:                                               ; preds = %3
  %13 = load ptr, ptr %5, align 8
  %14 = call noundef i64 @_ZN3gmx19ThreeFry2x64GeneralILj13ELj64EEclEv(ptr noundef nonnull align 8 dereferenceable(52) %13)
  %15 = getelementptr inbounds %"class.gmx::TabulatedNormalDistribution", ptr %8, i32 0, i32 1
  store i64 %14, ptr %15, align 8
  %16 = getelementptr inbounds %"class.gmx::TabulatedNormalDistribution", ptr %8, i32 0, i32 2
  store i32 64, ptr %16, align 8
  br label %17

17:                                               ; preds = %12, %3
  %18 = getelementptr inbounds %"class.gmx::TabulatedNormalDistribution", ptr %8, i32 0, i32 1
  %19 = load i64, ptr %18, align 8
  %20 = and i64 %19, 16383
  %21 = call noundef nonnull align 4 dereferenceable(4) ptr @_ZNKSt5arrayIfLm16384EEixEm(ptr noundef nonnull align 4 dereferenceable(65536) @_ZN3gmx27TabulatedNormalDistributionIfLj14EE8c_table_E, i64 noundef %20) #14
  %22 = load float, ptr %21, align 4
  store float %22, ptr %7, align 4
  %23 = getelementptr inbounds %"class.gmx::TabulatedNormalDistribution", ptr %8, i32 0, i32 1
  %24 = load i64, ptr %23, align 8
  %25 = lshr i64 %24, 14
  store i64 %25, ptr %23, align 8
  %26 = getelementptr inbounds %"class.gmx::TabulatedNormalDistribution", ptr %8, i32 0, i32 2
  %27 = load i32, ptr %26, align 8
  %28 = sub i32 %27, 14
  store i32 %28, ptr %26, align 8
  %29 = load ptr, ptr %6, align 8
  %30 = call noundef float @_ZNK3gmx27TabulatedNormalDistributionIfLj14EE10param_type4meanEv(ptr noundef nonnull align 4 dereferenceable(8) %29)
  %31 = load float, ptr %7, align 4
  %32 = load ptr, ptr %6, align 8
  %33 = call noundef float @_ZNK3gmx27TabulatedNormalDistributionIfLj14EE10param_type6stddevEv(ptr noundef nonnull align 4 dereferenceable(8) %32)
  %34 = call float @llvm.fmuladd.f32(float %31, float %33, float %30)
  ret float %34
}

; Function Attrs: mustprogress uwtable
define linkonce_odr noundef float @_ZN3gmx27TabulatedNormalDistributionIfLj14EEclINS_16ThreeFry2x64FastILj64EEEEEfRT_(ptr noundef nonnull align 8 dereferenceable(20) %0, ptr noundef nonnull align 8 dereferenceable(52) %1) #1 comdat align 2 {
  %3 = alloca ptr, align 8
  %4 = alloca ptr, align 8
  store ptr %0, ptr %3, align 8
  store ptr %1, ptr %4, align 8
  %5 = load ptr, ptr %3, align 8
  %6 = load ptr, ptr %4, align 8
  %7 = getelementptr inbounds %"class.gmx::TabulatedNormalDistribution", ptr %5, i32 0, i32 0
  %8 = call noundef float @_ZN3gmx27TabulatedNormalDistributionIfLj14EEclINS_16ThreeFry2x64FastILj64EEEEEfRT_RKNS1_10param_typeE(ptr noundef nonnull align 8 dereferenceable(20) %5, ptr noundef nonnull align 8 dereferenceable(52) %6, ptr noundef nonnull align 4 dereferenceable(8) %7)
  ret float %8
}

; Function Attrs: mustprogress uwtable
define noundef double @_ZN3gmx18ColvarProxyGromacs13rand_gaussianEv(ptr noundef nonnull align 8 dereferenceable(1728) %0) unnamed_addr #1 align 2 {
  %2 = alloca ptr, align 8
  store ptr %0, ptr %2, align 8
  %3 = load ptr, ptr %2, align 8
  %4 = getelementptr inbounds %"class.gmx::ColvarProxyGromacs", ptr %3, i32 0, i32 8
  %5 = getelementptr inbounds %"class.gmx::ColvarProxyGromacs", ptr %3, i32 0, i32 7
  %6 = call noundef float @_ZN3gmx27TabulatedNormalDistributionIfLj14EEclINS_16ThreeFry2x64FastILj64EEEEEfRT_(ptr noundef nonnull align 8 dereferenceable(20) %4, ptr noundef nonnull align 8 dereferenceable(52) %5)
  %7 = fpext float %6 to double
  ret double %7
}