; Function Attrs: mustprogress uwtable
define noundef double @_ZN3gmx18ColvarProxyGromacs13rand_gaussianEv(ptr noundef nonnull align 8 dereferenceable(1728) %0) unnamed_addr #1 align 2 {
  %2 = getelementptr inbounds i8, ptr %0, i64 1720
  %3 = load i32, ptr %2, align 8
  %4 = icmp ult i32 %3, 14
  br i1 %4, label %6, label %._crit_edge.i.i

._crit_edge.i.i:                                  ; preds = %1
  %.phi.trans.insert.i.i = getelementptr inbounds i8, ptr %0, i64 1712
  %.pre.i.i = load i64, ptr %.phi.trans.insert.i.i, align 8
  %5 = add i32 %3, -14
  br label %_ZN3gmx27TabulatedNormalDistributionIfLj14EEclINS_16ThreeFry2x64FastILj64EEEEEfRT_.exit

6:                                                ; preds = %1
  %7 = getelementptr inbounds i8, ptr %0, i64 1648
  %8 = tail call noundef i64 @_ZN3gmx19ThreeFry2x64GeneralILj13ELj64EEclEv(ptr noundef nonnull align 8 dereferenceable(52) %7)
  %9 = getelementptr inbounds i8, ptr %0, i64 1712
  store i64 %8, ptr %9, align 8
  store i32 64, ptr %2, align 8
  br label %_ZN3gmx27TabulatedNormalDistributionIfLj14EEclINS_16ThreeFry2x64FastILj64EEEEEfRT_.exit

_ZN3gmx27TabulatedNormalDistributionIfLj14EEclINS_16ThreeFry2x64FastILj64EEEEEfRT_.exit: ; preds = %._crit_edge.i.i, %6
  %10 = phi i32 [ %5, %._crit_edge.i.i ], [ 50, %6 ]
  %11 = phi i64 [ %.pre.i.i, %._crit_edge.i.i ], [ %8, %6 ]
  %12 = getelementptr inbounds i8, ptr %0, i64 1704
  %13 = getelementptr inbounds i8, ptr %0, i64 1712
  %14 = and i64 %11, 16383
  %15 = getelementptr inbounds [16384 x float], ptr @_ZN3gmx27TabulatedNormalDistributionIfLj14EE8c_table_E, i64 0, i64 %14
  %16 = load float, ptr %15, align 4
  %17 = lshr i64 %11, 14
  store i64 %17, ptr %13, align 8
  store i32 %10, ptr %2, align 8
  %18 = load float, ptr %12, align 8
  %19 = getelementptr inbounds i8, ptr %0, i64 1708
  %20 = load float, ptr %19, align 4
  %21 = tail call noundef float @llvm.fmuladd.f32(float %16, float %20, float %18)
  %22 = fpext float %21 to double
  ret double %22
}